; Function Attrs: nounwind uwtable
define dso_local i32 @luaL_loadstring(ptr noundef %0, ptr noundef %1) local_unnamed_addr #0 {
  %3 = alloca %struct.LoadS, align 8
  %4 = tail call i64 @strlen(ptr noundef nonnull dereferenceable(1) %1) #18
  call void @llvm.lifetime.start.p0(i64 16, ptr nonnull %3) #17
  store ptr %1, ptr %3, align 8, !tbaa !40
  %5 = getelementptr inbounds nuw i8, ptr %3, i64 8
  store i64 %4, ptr %5, align 8, !tbaa !42
  %6 = call i32 @lua_load(ptr noundef %0, ptr noundef nonnull @getS, ptr noundef nonnull %3, ptr noundef nonnull %1) #17
  call void @llvm.lifetime.end.p0(i64 16, ptr nonnull %3) #17
  ret i32 %6
}